; Function Attrs: mustprogress nofree norecurse nosync nounwind willreturn memory(argmem: readwrite) uwtable
define void @_ZN8QuantLib27PerformanceOptionPathPricerC2ENS_6Option4TypeEdSt6vectorIdSaIdEE(ptr nocapture noundef nonnull writeonly align 8 dereferenceable(48) %this, i32 noundef %type, double noundef %strike, ptr nocapture noundef %discounts) unnamed_addr #8 align 2 {
entry:
  store ptr getelementptr inbounds inrange(-16, 24) (i8, ptr @_ZTVN8QuantLib27PerformanceOptionPathPricerE, i64 16), ptr %this, align 8, !tbaa !14
  %strike_ = getelementptr inbounds nuw i8, ptr %this, i64 8
  store double %strike, ptr %strike_, align 8, !tbaa !18
  %type_ = getelementptr inbounds nuw i8, ptr %this, i64 16
  store i32 %type, ptr %type_, align 8, !tbaa !27
  %discounts_ = getelementptr inbounds nuw i8, ptr %this, i64 24
  %0 = load ptr, ptr %discounts, align 8, !tbaa !28
  store ptr %0, ptr %discounts_, align 8, !tbaa !28
  %_M_finish.i.i.i.i = getelementptr inbounds nuw i8, ptr %this, i64 32
  %_M_finish3.i.i.i.i = getelementptr inbounds nuw i8, ptr %discounts, i64 8
  %1 = load ptr, ptr %_M_finish3.i.i.i.i, align 8, !tbaa !29
  store ptr %1, ptr %_M_finish.i.i.i.i, align 8, !tbaa !29
  %_M_end_of_storage.i.i.i.i = getelementptr inbounds nuw i8, ptr %this, i64 40
  %_M_end_of_storage4.i.i.i.i = getelementptr inbounds nuw i8, ptr %discounts, i64 16
  %2 = load ptr, ptr %_M_end_of_storage4.i.i.i.i, align 8, !tbaa !30
  store ptr %2, ptr %_M_end_of_storage.i.i.i.i, align 8, !tbaa !30
  tail call void @llvm.memset.p0.i64(ptr noundef nonnull align 8 dereferenceable(24) %discounts, i8 0, i64 24, i1 false)
  ret void
}